; Function Attrs: mustprogress uwtable
define noundef ptr @_ZNK6icu_7718RelativeDateFormat5cloneEv(ptr noundef nonnull align 8 dereferenceable(456) %0) unnamed_addr #1 align 2 personality ptr @__gxx_personality_v0 {
  %2 = tail call noundef ptr @_ZN6icu_777UMemorynwEm(i64 noundef 456) #15
  %3 = icmp eq ptr %2, null
  br i1 %3, label %5, label %4

4:                                                ; preds = %1
  invoke void @_ZN6icu_7718RelativeDateFormatC1ERKS0_(ptr noundef nonnull align 8 dereferenceable(456) %2, ptr noundef nonnull align 8 dereferenceable(456) %0)
          to label %5 unwind label %6

5:                                                ; preds = %4, %1
  ret ptr %2

6:                                                ; preds = %4
  %7 = landingpad { ptr, i32 }
          cleanup
  tail call void @_ZN6icu_777UMemorydlEPv(ptr noundef nonnull %2) #15
  resume { ptr, i32 } %7
}